; Function Attrs: mustprogress nofree norecurse nosync nounwind willreturn memory(argmem: read) uwtable
define internal noundef zeroext i1 @_ZZN28b3SortedOverlappingPairCache37removeOverlappingPairsContainingProxyEiP12b3DispatcherEN18RemovePairCallback14processOverlapER6b3Int4(ptr noundef nonnull readonly align 8 captures(none) dereferenceable(12) %0, ptr noundef nonnull readonly align 16 captures(none) dereferenceable(16) %1) unnamed_addr #8 align 2 {
  %3 = load i32, ptr %1, align 16, !tbaa !30
  %4 = getelementptr inbounds nuw i8, ptr %0, i64 8
  %5 = load i32, ptr %4, align 8, !tbaa !66
  %6 = icmp eq i32 %3, %5
  %7 = getelementptr inbounds nuw i8, ptr %1, i64 4
  %8 = load i32, ptr %7, align 4
  %9 = icmp eq i32 %8, %5
  %10 = select i1 %6, i1 true, i1 %9
  ret i1 %10
}